ARM GAS  C:\Users\ylee818\AppData\Local\Temp\ccwxskrQ.s 			page 1


   1              		.syntax unified
   2              		.cpu cortex-m3
   3              		.fpu softvfp
   4              		.eabi_attribute 20, 1
   5              		.eabi_attribute 21, 1
   6              		.eabi_attribute 23, 3
   7              		.eabi_attribute 24, 1
   8              		.eabi_attribute 25, 1
   9              		.eabi_attribute 26, 1
  10              		.eabi_attribute 30, 6
  11              		.eabi_attribute 34, 1
  12              		.eabi_attribute 18, 4
  13              		.thumb
  14              		.syntax unified
  15              		.file	"directions.c"
  16              		.text
  17              	.Ltext0:
  18              		.cfi_sections	.debug_frame
  19              		.section	.text.pivot_steer,"ax",%progbits
  20              		.align	2
  21              		.thumb
  22              		.thumb_func
  23              		.type	pivot_steer, %function
  24              	pivot_steer:
  25              	.LFB63:
  26              		.file 1 "directions.c"
   1:directions.c  **** #include <project.h>
   2:directions.c  **** #include <stdint.h>
   3:directions.c  **** #include "directions.h"
   4:directions.c  **** #include "motor_s.h"
   5:directions.c  **** 
   6:directions.c  **** /* ================================
   7:directions.c  ****  * Robot-specific PWM + enable
   8:directions.c  ****  *  - Clock_PWM, PWM_1, PWM_2
   9:directions.c  ****  *  - CONTROL pin: LOW = enable
  10:directions.c  ****  *  - Sign map (typical from your build):
  11:directions.c  ****  *      LEFT  forward  = +duty
  12:directions.c  ****  *      RIGHT forward  = -duty
  13:directions.c  ****  *    -> Pivot LEFT  = left reverse,  right forward
  14:directions.c  ****  *    -> Pivot RIGHT = right reverse, left  forward
  15:directions.c  ****  * Adjust RIGHT/LEFT signs below if your wiring differs.
  16:directions.c  ****  * ================================ */
  17:directions.c  **** 
  18:directions.c  **** /* ===== Tunables (start here, then fine-tune on floor) ===== */
  19:directions.c  **** #define TURN_SPEED_PC        28      // 10..40%
  20:directions.c  **** #define TURN_TIME_MS         550     // ~90° at TURN_SPEED_PC (tune ±20–60 ms)
  21:directions.c  **** #define STOP_BEFORE_MS       80      // settle before pivot
  22:directions.c  **** #define BRAKE_AFTER_MS       90      // quick brake after pivot
  23:directions.c  **** #define PWM_PERIOD_TICKS     200u    // must match your PWM config
  24:directions.c  **** 
  25:directions.c  **** /* NEW: small holdoff before we start the pivot.
  26:directions.c  ****  * Lets straight-line control run ~10 ms longer after detection. */
  27:directions.c  **** #define TURN_START_DELAY_MS  70
  28:directions.c  **** 
  29:directions.c  **** /* Polarity (forward direction) */
  30:directions.c  **** #define RIGHT_MOTOR_SIGN     (-1)
  31:directions.c  **** #define LEFT_MOTOR_SIGN      (+1)
ARM GAS  C:\Users\ylee818\AppData\Local\Temp\ccwxskrQ.s 			page 2


  32:directions.c  **** 
  33:directions.c  **** static inline void pivot_steer(int steer_pc) {
  27              		.loc 1 33 0
  28              		.cfi_startproc
  29              		@ args = 0, pretend = 0, frame = 8
  30              		@ frame_needed = 1, uses_anonymous_args = 0
  31 0000 80B5     		push	{r7, lr}
  32              		.cfi_def_cfa_offset 8
  33              		.cfi_offset 7, -8
  34              		.cfi_offset 14, -4
  35 0002 82B0     		sub	sp, sp, #8
  36              		.cfi_def_cfa_offset 16
  37 0004 00AF     		add	r7, sp, #0
  38              		.cfi_def_cfa_register 7
  39 0006 7860     		str	r0, [r7, #4]
  34:directions.c  ****     set_motors_with_trim_and_steer(0, steer_pc);
  40              		.loc 1 34 0
  41 0008 7968     		ldr	r1, [r7, #4]
  42 000a 0020     		movs	r0, #0
  43 000c FFF7FEFF 		bl	set_motors_with_trim_and_steer
  35:directions.c  **** }
  44              		.loc 1 35 0
  45 0010 00BF     		nop
  46 0012 0837     		adds	r7, r7, #8
  47              		.cfi_def_cfa_offset 8
  48 0014 BD46     		mov	sp, r7
  49              		.cfi_def_cfa_register 13
  50              		@ sp needed
  51 0016 80BD     		pop	{r7, pc}
  52              		.cfi_endproc
  53              	.LFE63:
  54              		.size	pivot_steer, .-pivot_steer
  55              		.section	.text.brake_quick,"ax",%progbits
  56              		.align	2
  57              		.thumb
  58              		.thumb_func
  59              		.type	brake_quick, %function
  60              	brake_quick:
  61              	.LFB64:
  36:directions.c  **** 
  37:directions.c  **** static void brake_quick(uint16_t ms, int base_pc){
  62              		.loc 1 37 0
  63              		.cfi_startproc
  64              		@ args = 0, pretend = 0, frame = 16
  65              		@ frame_needed = 1, uses_anonymous_args = 0
  66 0000 80B5     		push	{r7, lr}
  67              		.cfi_def_cfa_offset 8
  68              		.cfi_offset 7, -8
  69              		.cfi_offset 14, -4
  70 0002 84B0     		sub	sp, sp, #16
  71              		.cfi_def_cfa_offset 24
  72 0004 00AF     		add	r7, sp, #0
  73              		.cfi_def_cfa_register 7
  74 0006 0346     		mov	r3, r0
  75 0008 3960     		str	r1, [r7]
  76 000a FB80     		strh	r3, [r7, #6]	@ movhi
  38:directions.c  ****     int d = (base_pc < 8) ? 8 : base_pc;
ARM GAS  C:\Users\ylee818\AppData\Local\Temp\ccwxskrQ.s 			page 3


  77              		.loc 1 38 0
  78 000c 3B68     		ldr	r3, [r7]
  79 000e 082B     		cmp	r3, #8
  80 0010 B8BF     		it	lt
  81 0012 0823     		movlt	r3, #8
  82 0014 FB60     		str	r3, [r7, #12]
  39:directions.c  ****     set_motors_symmetric(-d);   
  83              		.loc 1 39 0
  84 0016 FB68     		ldr	r3, [r7, #12]
  85 0018 5B42     		negs	r3, r3
  86 001a 1846     		mov	r0, r3
  87 001c FFF7FEFF 		bl	set_motors_symmetric
  40:directions.c  ****     CyDelay(ms);
  88              		.loc 1 40 0
  89 0020 FB88     		ldrh	r3, [r7, #6]
  90 0022 1846     		mov	r0, r3
  91 0024 FFF7FEFF 		bl	CyDelay
  41:directions.c  **** }
  92              		.loc 1 41 0
  93 0028 00BF     		nop
  94 002a 1037     		adds	r7, r7, #16
  95              		.cfi_def_cfa_offset 8
  96 002c BD46     		mov	sp, r7
  97              		.cfi_def_cfa_register 13
  98              		@ sp needed
  99 002e 80BD     		pop	{r7, pc}
 100              		.cfi_endproc
 101              	.LFE64:
 102              		.size	brake_quick, .-brake_quick
 103              		.section	.text.Directions_Init,"ax",%progbits
 104              		.align	2
 105              		.global	Directions_Init
 106              		.thumb
 107              		.thumb_func
 108              		.type	Directions_Init, %function
 109              	Directions_Init:
 110              	.LFB65:
  42:directions.c  **** 
  43:directions.c  **** void Directions_Init(void){
 111              		.loc 1 43 0
 112              		.cfi_startproc
 113              		@ args = 0, pretend = 0, frame = 0
 114              		@ frame_needed = 1, uses_anonymous_args = 0
 115              		@ link register save eliminated.
 116 0000 80B4     		push	{r7}
 117              		.cfi_def_cfa_offset 4
 118              		.cfi_offset 7, -4
 119 0002 00AF     		add	r7, sp, #0
 120              		.cfi_def_cfa_register 7
  44:directions.c  ****     // nothing needed; safe to call anytime
  45:directions.c  **** }
 121              		.loc 1 45 0
 122 0004 00BF     		nop
 123 0006 BD46     		mov	sp, r7
 124              		.cfi_def_cfa_register 13
 125              		@ sp needed
 126 0008 80BC     		pop	{r7}
ARM GAS  C:\Users\ylee818\AppData\Local\Temp\ccwxskrQ.s 			page 4


 127              		.cfi_restore 7
 128              		.cfi_def_cfa_offset 0
 129 000a 7047     		bx	lr
 130              		.cfi_endproc
 131              	.LFE65:
 132              		.size	Directions_Init, .-Directions_Init
 133              		.section	.text.Directions_IsBusy,"ax",%progbits
 134              		.align	2
 135              		.global	Directions_IsBusy
 136              		.thumb
 137              		.thumb_func
 138              		.type	Directions_IsBusy, %function
 139              	Directions_IsBusy:
 140              	.LFB66:
  46:directions.c  **** 
  47:directions.c  **** bool Directions_IsBusy(void){
 141              		.loc 1 47 0
 142              		.cfi_startproc
 143              		@ args = 0, pretend = 0, frame = 0
 144              		@ frame_needed = 1, uses_anonymous_args = 0
 145              		@ link register save eliminated.
 146 0000 80B4     		push	{r7}
 147              		.cfi_def_cfa_offset 4
 148              		.cfi_offset 7, -4
 149 0002 00AF     		add	r7, sp, #0
 150              		.cfi_def_cfa_register 7
  48:directions.c  ****     return false; // blocking implementation
 151              		.loc 1 48 0
 152 0004 0023     		movs	r3, #0
  49:directions.c  **** }
 153              		.loc 1 49 0
 154 0006 1846     		mov	r0, r3
 155 0008 BD46     		mov	sp, r7
 156              		.cfi_def_cfa_register 13
 157              		@ sp needed
 158 000a 80BC     		pop	{r7}
 159              		.cfi_restore 7
 160              		.cfi_def_cfa_offset 0
 161 000c 7047     		bx	lr
 162              		.cfi_endproc
 163              	.LFE66:
 164              		.size	Directions_IsBusy, .-Directions_IsBusy
 165 000e 00BF     		.section	.text.Directions_Handle,"ax",%progbits
 166              		.align	2
 167              		.global	Directions_Handle
 168              		.thumb
 169              		.thumb_func
 170              		.type	Directions_Handle, %function
 171              	Directions_Handle:
 172              	.LFB67:
  50:directions.c  **** 
  51:directions.c  **** 
  52:directions.c  **** void Directions_Handle(volatile uint8_t* gdir){
 173              		.loc 1 52 0
 174              		.cfi_startproc
 175              		@ args = 0, pretend = 0, frame = 8
 176              		@ frame_needed = 1, uses_anonymous_args = 0
ARM GAS  C:\Users\ylee818\AppData\Local\Temp\ccwxskrQ.s 			page 5


 177 0000 80B5     		push	{r7, lr}
 178              		.cfi_def_cfa_offset 8
 179              		.cfi_offset 7, -8
 180              		.cfi_offset 14, -4
 181 0002 82B0     		sub	sp, sp, #8
 182              		.cfi_def_cfa_offset 16
 183 0004 00AF     		add	r7, sp, #0
 184              		.cfi_def_cfa_register 7
 185 0006 7860     		str	r0, [r7, #4]
  53:directions.c  ****     if (!gdir || *gdir==0u)return;
 186              		.loc 1 53 0
 187 0008 7B68     		ldr	r3, [r7, #4]
 188 000a 002B     		cmp	r3, #0
 189 000c 2DD0     		beq	.L12
 190              		.loc 1 53 0 is_stmt 0 discriminator 1
 191 000e 7B68     		ldr	r3, [r7, #4]
 192 0010 1B78     		ldrb	r3, [r3]
 193 0012 DBB2     		uxtb	r3, r3
 194 0014 002B     		cmp	r3, #0
 195 0016 28D0     		beq	.L12
  54:directions.c  ****     
  55:directions.c  ****     CyDelay(TURN_START_DELAY_MS);
 196              		.loc 1 55 0 is_stmt 1
 197 0018 4620     		movs	r0, #70
 198 001a FFF7FEFF 		bl	CyDelay
  56:directions.c  ****     
  57:directions.c  ****     set_motors_symmetric(0);
 199              		.loc 1 57 0
 200 001e 0020     		movs	r0, #0
 201 0020 FFF7FEFF 		bl	set_motors_symmetric
  58:directions.c  ****     CyDelay(STOP_BEFORE_MS);
 202              		.loc 1 58 0
 203 0024 5020     		movs	r0, #80
 204 0026 FFF7FEFF 		bl	CyDelay
  59:directions.c  ****     
  60:directions.c  ****     if (*gdir == 1u) {                 // LEFT
 205              		.loc 1 60 0
 206 002a 7B68     		ldr	r3, [r7, #4]
 207 002c 1B78     		ldrb	r3, [r3]
 208 002e DBB2     		uxtb	r3, r3
 209 0030 012B     		cmp	r3, #1
 210 0032 07D1     		bne	.L10
  61:directions.c  ****         pivot_steer(+TURN_SPEED_PC);
 211              		.loc 1 61 0
 212 0034 1C20     		movs	r0, #28
 213 0036 FFF7FEFF 		bl	pivot_steer
  62:directions.c  ****         CyDelay(TURN_TIME_MS);
 214              		.loc 1 62 0
 215 003a 40F22620 		movw	r0, #550
 216 003e FFF7FEFF 		bl	CyDelay
 217 0042 07E0     		b	.L11
 218              	.L10:
  63:directions.c  ****     } else {                            // RIGHT
  64:directions.c  ****         pivot_steer(-TURN_SPEED_PC);
 219              		.loc 1 64 0
 220 0044 6FF01B00 		mvn	r0, #27
 221 0048 FFF7FEFF 		bl	pivot_steer
ARM GAS  C:\Users\ylee818\AppData\Local\Temp\ccwxskrQ.s 			page 6


  65:directions.c  ****         CyDelay(TURN_TIME_MS);
 222              		.loc 1 65 0
 223 004c 40F22620 		movw	r0, #550
 224 0050 FFF7FEFF 		bl	CyDelay
 225              	.L11:
  66:directions.c  ****     }
  67:directions.c  ****     brake_quick(BRAKE_AFTER_MS, TURN_SPEED_PC);
 226              		.loc 1 67 0
 227 0054 1C21     		movs	r1, #28
 228 0056 5A20     		movs	r0, #90
 229 0058 FFF7FEFF 		bl	brake_quick
  68:directions.c  ****     set_motors_symmetric(0);
 230              		.loc 1 68 0
 231 005c 0020     		movs	r0, #0
 232 005e FFF7FEFF 		bl	set_motors_symmetric
  69:directions.c  ****     
  70:directions.c  ****         *gdir = 0u;            // back to straight mode
 233              		.loc 1 70 0
 234 0062 7B68     		ldr	r3, [r7, #4]
 235 0064 0022     		movs	r2, #0
 236 0066 1A70     		strb	r2, [r3]
 237 0068 00E0     		b	.L6
 238              	.L12:
  53:directions.c  ****     
 239              		.loc 1 53 0
 240 006a 00BF     		nop
 241              	.L6:
  71:directions.c  ****     
  72:directions.c  **** }
 242              		.loc 1 72 0
 243 006c 0837     		adds	r7, r7, #8
 244              		.cfi_def_cfa_offset 8
 245 006e BD46     		mov	sp, r7
 246              		.cfi_def_cfa_register 13
 247              		@ sp needed
 248 0070 80BD     		pop	{r7, pc}
 249              		.cfi_endproc
 250              	.LFE67:
 251              		.size	Directions_Handle, .-Directions_Handle
 252 0072 00BF     		.text
 253              	.Letext0:
 254              		.file 2 "c:\\program files (x86)\\cypress\\psoc creator\\4.2\\psoc creator\\import\\gnu\\arm\\5.4.
 255              		.file 3 "c:\\program files (x86)\\cypress\\psoc creator\\4.2\\psoc creator\\import\\gnu\\arm\\5.4.
 256              		.file 4 "Generated_Source\\PSoC5/core_cm3.h"