ARM GAS  C:\Users\ylee818\AppData\Local\Temp\ccpZH8oM.s 			page 1


   1              		.syntax unified
   2              		.cpu cortex-m3
   3              		.fpu softvfp
   4              		.eabi_attribute 20, 1
   5              		.eabi_attribute 21, 1
   6              		.eabi_attribute 23, 3
   7              		.eabi_attribute 24, 1
   8              		.eabi_attribute 25, 1
   9              		.eabi_attribute 26, 1
  10              		.eabi_attribute 30, 6
  11              		.eabi_attribute 34, 1
  12              		.eabi_attribute 18, 4
  13              		.thumb
  14              		.syntax unified
  15              		.file	"main.c"
  16              		.text
  17              	.Ltext0:
  18              		.cfi_sections	.debug_frame
  19              		.bss
  20              	sen1_on_line:
  21 0000 00       		.space	1
  22              	sen2_on_line:
  23 0001 00       		.space	1
  24              	sen3_on_line:
  25 0002 00       		.space	1
  26              	sen4_on_line:
  27 0003 00       		.space	1
  28              	sen5_on_line:
  29 0004 00       		.space	1
  30              	sen6_on_line:
  31 0005 00       		.space	1
  32              	g_direction:
  33 0006 00       		.space	1
  34              	g_stop_now:
  35 0007 00       		.space	1
  36              		.align	2
  37              	g_dist_mm:
  38 0008 00000000 		.space	4
  39              		.section	.text.scaled_steer_step,"ax",%progbits
  40              		.align	2
  41              		.thumb
  42              		.thumb_func
  43              		.type	scaled_steer_step, %function
  44              	scaled_steer_step:
  45              	.LFB64:
  46              		.file 1 "main.c"
   1:main.c        **** /* ========================= main.c =========================
   2:main.c        ****  * - sensors.* UNCHANGED (uses Sensor_ComputePeakToPeak)
   3:main.c        ****  * - directions.* used for timed pivots on demand
   4:main.c        ****  * - motor: uses new motor.h / motor.c (set_motors_* API)
   5:main.c        ****  *
   6:main.c        ****  * Behavior:
   7:main.c        ****  *   - S1 (left)  → LEFT turn (g_direction=1)
   8:main.c        ****  *   - S2 (right) → RIGHT turn (g_direction=2)
   9:main.c        ****  *   - Otherwise  → straight running with line trim (S4–S6)
  10:main.c        ****  *
  11:main.c        ****  * Improvements kept:
ARM GAS  C:\Users\ylee818\AppData\Local\Temp\ccpZH8oM.s 			page 2


  12:main.c        ****  *   - S1/S2: widened band + hysteresis (less-dark shadows OK)
  13:main.c        ****  *   - Edge-trigger + latch, must-clear-first arming
  14:main.c        ****  * ========================================================= */
  15:main.c        **** 
  16:main.c        **** #include <project.h>
  17:main.c        **** #include <stdint.h>
  18:main.c        **** #include <stdbool.h>
  19:main.c        **** 
  20:main.c        **** #include <sensors.h>     // Sensor_ComputePeakToPeak()
  21:main.c        **** #include "motor_s.h"       // new motor API (set_motors_*, motor_enable)
  22:main.c        **** #include "directions.h"  // Directions_* turning module
  23:main.c        **** 
  24:main.c        **** /* ===== Loop pacing (optional) ===== */
  25:main.c        **** #define LOOP_DT_MS               8u
  26:main.c        **** 
  27:main.c        **** /* ===== Speed / distance (simple cruise) ===== */
  28:main.c        **** #define VMAX_CONST_MM_S        800
  29:main.c        **** #define SPEED_FRAC_PERCENT      25
  30:main.c        **** #define V_CRUISE_MM_S  ((int32_t)VMAX_CONST_MM_S * (int32_t)SPEED_FRAC_PERCENT / 100)
  31:main.c        **** #define TARGET_DIST_MM        1100
  32:main.c        **** 
  33:main.c        **** /* ===== Encoder → mm conversion (same as 이전 코드 값) ===== */
  34:main.c        **** #define QD_SAMPLE_MS             5u
  35:main.c        **** #define CPR_OUTSHAFT           228u
  36:main.c        **** #define R_MM                    34
  37:main.c        **** #define PI_X1000              3142
  38:main.c        **** #define PERIM_MM_X1000   ((int32_t)(2 * PI_X1000 * R_MM))
  39:main.c        **** #define MM_PER_COUNT_X1000     ( PERIM_MM_X1000 / CPR_OUTSHAFT )
  40:main.c        **** #define CALIB_DIST_X1000     1500     /* 현장 보정값 유지 */
  41:main.c        **** #define APPLY_CALIB_DIST(x)  ( (int32_t)(((int64_t)(x) * CALIB_DIST_X1000 + 500)/1000) )
  42:main.c        **** 
  43:main.c        **** /* ===== S1/S2 relaxed detection (band + hysteresis) ===== */
  44:main.c        **** #define S_MINC_COUNTS            2u     // was 10
  45:main.c        **** #define S_MAXC_COUNTS          450u     // was 100
  46:main.c        **** #define S_HYST_COUNTS           16u     // enter/exit gap to prevent flicker
  47:main.c        **** 
  48:main.c        **** /* ===== Turn request filtering ===== */
  49:main.c        **** #define TURN_DEBOUNCE_TICKS       5u    // consecutive ticks to confirm S1/S2
  50:main.c        **** #define CLEAR_ARM_TICKS           4u    // both S1 & S2 clear briefly before first turn
  51:main.c        **** 
  52:main.c        **** /* ===== Local sensor flags (used for steering & decisions) ===== */
  53:main.c        **** static uint8_t sen1_on_line=0, sen2_on_line=0, sen3_on_line=0;
  54:main.c        **** static uint8_t sen4_on_line=0, sen5_on_line=0, sen6_on_line=0;
  55:main.c        **** 
  56:main.c        **** /* Global direction flag: 0=straight, 1=left, 2=right */
  57:main.c        **** static volatile uint8_t g_direction = 0;
  58:main.c        **** 
  59:main.c        **** /* Stop is the 1st thing to think */
  60:main.c        **** static volatile uint8_t g_stop_now = 0;
  61:main.c        **** 
  62:main.c        **** /* ----- minimal odometry (Δcount → mm 누적) ----- */
  63:main.c        **** static volatile int32_t g_dist_mm = 0;
  64:main.c        **** 
  65:main.c        **** /* ------------------------------------------------------------------
  66:main.c        ****  * Steering bias provider (unchanged style; uses S4–S6 for trim)
  67:main.c        ****  * ------------------------------------------------------------------ */
  68:main.c        **** static inline int scaled_steer_step(int base_duty) {
ARM GAS  C:\Users\ylee818\AppData\Local\Temp\ccpZH8oM.s 			page 3


  47              		.loc 1 68 0
  48              		.cfi_startproc
  49              		@ args = 0, pretend = 0, frame = 24
  50              		@ frame_needed = 1, uses_anonymous_args = 0
  51              		@ link register save eliminated.
  52 0000 80B4     		push	{r7}
  53              		.cfi_def_cfa_offset 4
  54              		.cfi_offset 7, -4
  55 0002 87B0     		sub	sp, sp, #28
  56              		.cfi_def_cfa_offset 32
  57 0004 00AF     		add	r7, sp, #0
  58              		.cfi_def_cfa_register 7
  59 0006 7860     		str	r0, [r7, #4]
  69:main.c        ****     const int STEER_STEP = 1, MIN_STEER_STEP = 1;
  60              		.loc 1 69 0
  61 0008 0123     		movs	r3, #1
  62 000a 3B61     		str	r3, [r7, #16]
  63 000c 0123     		movs	r3, #1
  64 000e FB60     		str	r3, [r7, #12]
  70:main.c        ****     int pct = (base_duty >= 0) ? base_duty : -base_duty;
  65              		.loc 1 70 0
  66 0010 7B68     		ldr	r3, [r7, #4]
  67 0012 002B     		cmp	r3, #0
  68 0014 B8BF     		it	lt
  69 0016 5B42     		rsblt	r3, r3, #0
  70 0018 BB60     		str	r3, [r7, #8]
  71:main.c        ****     int step = (pct < 50) ? (STEER_STEP * (pct + 10) + 59) / 60 : STEER_STEP;
  71              		.loc 1 71 0
  72 001a BB68     		ldr	r3, [r7, #8]
  73 001c 312B     		cmp	r3, #49
  74 001e 0DDC     		bgt	.L2
  75              		.loc 1 71 0 is_stmt 0 discriminator 1
  76 0020 BB68     		ldr	r3, [r7, #8]
  77 0022 0A33     		adds	r3, r3, #10
  78 0024 3A69     		ldr	r2, [r7, #16]
  79 0026 02FB03F3 		mul	r3, r2, r3
  80 002a 3B33     		adds	r3, r3, #59
  81 002c 0A4A     		ldr	r2, .L6
  82 002e 82FB0312 		smull	r1, r2, r2, r3
  83 0032 1A44     		add	r2, r2, r3
  84 0034 5211     		asrs	r2, r2, #5
  85 0036 DB17     		asrs	r3, r3, #31
  86 0038 D31A     		subs	r3, r2, r3
  87 003a 00E0     		b	.L3
  88              	.L2:
  89              		.loc 1 71 0 discriminator 2
  90 003c 3B69     		ldr	r3, [r7, #16]
  91              	.L3:
  92              		.loc 1 71 0 discriminator 4
  93 003e 7B61     		str	r3, [r7, #20]
  72:main.c        ****     if (step < MIN_STEER_STEP) step = MIN_STEER_STEP;
  94              		.loc 1 72 0 is_stmt 1 discriminator 4
  95 0040 7A69     		ldr	r2, [r7, #20]
  96 0042 FB68     		ldr	r3, [r7, #12]
  97 0044 9A42     		cmp	r2, r3
  98 0046 01DA     		bge	.L4
  99              		.loc 1 72 0 is_stmt 0 discriminator 1
ARM GAS  C:\Users\ylee818\AppData\Local\Temp\ccpZH8oM.s 			page 4


 100 0048 FB68     		ldr	r3, [r7, #12]
 101 004a 7B61     		str	r3, [r7, #20]
 102              	.L4:
  73:main.c        ****     return step;
 103              		.loc 1 73 0 is_stmt 1
 104 004c 7B69     		ldr	r3, [r7, #20]
  74:main.c        **** }
 105              		.loc 1 74 0
 106 004e 1846     		mov	r0, r3
 107 0050 1C37     		adds	r7, r7, #28
 108              		.cfi_def_cfa_offset 4
 109 0052 BD46     		mov	sp, r7
 110              		.cfi_def_cfa_register 13
 111              		@ sp needed
 112 0054 80BC     		pop	{r7}
 113              		.cfi_restore 7
 114              		.cfi_def_cfa_offset 0
 115 0056 7047     		bx	lr
 116              	.L7:
 117              		.align	2
 118              	.L6:
 119 0058 89888888 		.word	-2004318071
 120              		.cfi_endproc
 121              	.LFE64:
 122              		.size	scaled_steer_step, .-scaled_steer_step
 123              		.section	.text.steer_bias_provider,"ax",%progbits
 124              		.align	2
 125              		.thumb
 126              		.thumb_func
 127              		.type	steer_bias_provider, %function
 128              	steer_bias_provider:
 129              	.LFB65:
  75:main.c        **** static int steer_bias_provider(int center_duty){
 130              		.loc 1 75 0
 131              		.cfi_startproc
 132              		@ args = 0, pretend = 0, frame = 16
 133              		@ frame_needed = 1, uses_anonymous_args = 0
 134 0000 80B5     		push	{r7, lr}
 135              		.cfi_def_cfa_offset 8
 136              		.cfi_offset 7, -8
 137              		.cfi_offset 14, -4
 138 0002 84B0     		sub	sp, sp, #16
 139              		.cfi_def_cfa_offset 24
 140 0004 00AF     		add	r7, sp, #0
 141              		.cfi_def_cfa_register 7
 142 0006 7860     		str	r0, [r7, #4]
  76:main.c        ****     int small = scaled_steer_step(center_duty);
 143              		.loc 1 76 0
 144 0008 7868     		ldr	r0, [r7, #4]
 145 000a FFF7FEFF 		bl	scaled_steer_step
 146 000e F860     		str	r0, [r7, #12]
  77:main.c        ****     int big   = (small*3+1)/2;
 147              		.loc 1 77 0
 148 0010 FA68     		ldr	r2, [r7, #12]
 149 0012 1346     		mov	r3, r2
 150 0014 5B00     		lsls	r3, r3, #1
 151 0016 1344     		add	r3, r3, r2
ARM GAS  C:\Users\ylee818\AppData\Local\Temp\ccpZH8oM.s 			page 5


 152 0018 0133     		adds	r3, r3, #1
 153 001a DA0F     		lsrs	r2, r3, #31
 154 001c 1344     		add	r3, r3, r2
 155 001e 5B10     		asrs	r3, r3, #1
 156 0020 BB60     		str	r3, [r7, #8]
  78:main.c        **** 
  79:main.c        ****     if (sen6_on_line && sen4_on_line && !sen5_on_line) return +small;
 157              		.loc 1 79 0
 158 0022 1F4B     		ldr	r3, .L14
 159 0024 1B78     		ldrb	r3, [r3]	@ zero_extendqisi2
 160 0026 002B     		cmp	r3, #0
 161 0028 09D0     		beq	.L9
 162              		.loc 1 79 0 is_stmt 0 discriminator 1
 163 002a 1E4B     		ldr	r3, .L14+4
 164 002c 1B78     		ldrb	r3, [r3]	@ zero_extendqisi2
 165 002e 002B     		cmp	r3, #0
 166 0030 05D0     		beq	.L9
 167              		.loc 1 79 0 discriminator 2
 168 0032 1D4B     		ldr	r3, .L14+8
 169 0034 1B78     		ldrb	r3, [r3]	@ zero_extendqisi2
 170 0036 002B     		cmp	r3, #0
 171 0038 01D1     		bne	.L9
 172              		.loc 1 79 0 discriminator 3
 173 003a FB68     		ldr	r3, [r7, #12]
 174 003c 2CE0     		b	.L10
 175              	.L9:
  80:main.c        ****     if (sen6_on_line && sen5_on_line && !sen4_on_line) return -small;
 176              		.loc 1 80 0 is_stmt 1
 177 003e 184B     		ldr	r3, .L14
 178 0040 1B78     		ldrb	r3, [r3]	@ zero_extendqisi2
 179 0042 002B     		cmp	r3, #0
 180 0044 0AD0     		beq	.L11
 181              		.loc 1 80 0 is_stmt 0 discriminator 1
 182 0046 184B     		ldr	r3, .L14+8
 183 0048 1B78     		ldrb	r3, [r3]	@ zero_extendqisi2
 184 004a 002B     		cmp	r3, #0
 185 004c 06D0     		beq	.L11
 186              		.loc 1 80 0 discriminator 2
 187 004e 154B     		ldr	r3, .L14+4
 188 0050 1B78     		ldrb	r3, [r3]	@ zero_extendqisi2
 189 0052 002B     		cmp	r3, #0
 190 0054 02D1     		bne	.L11
 191              		.loc 1 80 0 discriminator 3
 192 0056 FB68     		ldr	r3, [r7, #12]
 193 0058 5B42     		negs	r3, r3
 194 005a 1DE0     		b	.L10
 195              	.L11:
  81:main.c        ****     if (!sen6_on_line && sen4_on_line && !sen5_on_line) return +big;
 196              		.loc 1 81 0 is_stmt 1
 197 005c 104B     		ldr	r3, .L14
 198 005e 1B78     		ldrb	r3, [r3]	@ zero_extendqisi2
 199 0060 002B     		cmp	r3, #0
 200 0062 09D1     		bne	.L12
 201              		.loc 1 81 0 is_stmt 0 discriminator 1
 202 0064 0F4B     		ldr	r3, .L14+4
 203 0066 1B78     		ldrb	r3, [r3]	@ zero_extendqisi2
 204 0068 002B     		cmp	r3, #0
ARM GAS  C:\Users\ylee818\AppData\Local\Temp\ccpZH8oM.s 			page 6


 205 006a 05D0     		beq	.L12
 206              		.loc 1 81 0 discriminator 2
 207 006c 0E4B     		ldr	r3, .L14+8
 208 006e 1B78     		ldrb	r3, [r3]	@ zero_extendqisi2
 209 0070 002B     		cmp	r3, #0
 210 0072 01D1     		bne	.L12
 211              		.loc 1 81 0 discriminator 3
 212 0074 BB68     		ldr	r3, [r7, #8]
 213 0076 0FE0     		b	.L10
 214              	.L12:
  82:main.c        ****     if (!sen6_on_line && sen5_on_line && !sen4_on_line) return -big;
 215              		.loc 1 82 0 is_stmt 1
 216 0078 094B     		ldr	r3, .L14
 217 007a 1B78     		ldrb	r3, [r3]	@ zero_extendqisi2
 218 007c 002B     		cmp	r3, #0
 219 007e 0AD1     		bne	.L13
 220              		.loc 1 82 0 is_stmt 0 discriminator 1
 221 0080 094B     		ldr	r3, .L14+8
 222 0082 1B78     		ldrb	r3, [r3]	@ zero_extendqisi2
 223 0084 002B     		cmp	r3, #0
 224 0086 06D0     		beq	.L13
 225              		.loc 1 82 0 discriminator 2
 226 0088 064B     		ldr	r3, .L14+4
 227 008a 1B78     		ldrb	r3, [r3]	@ zero_extendqisi2
 228 008c 002B     		cmp	r3, #0
 229 008e 02D1     		bne	.L13
 230              		.loc 1 82 0 discriminator 3
 231 0090 BB68     		ldr	r3, [r7, #8]
 232 0092 5B42     		negs	r3, r3
 233 0094 00E0     		b	.L10
 234              	.L13:
  83:main.c        ****     return 0;
 235              		.loc 1 83 0 is_stmt 1
 236 0096 0023     		movs	r3, #0
 237              	.L10:
  84:main.c        **** }
 238              		.loc 1 84 0
 239 0098 1846     		mov	r0, r3
 240 009a 1037     		adds	r7, r7, #16
 241              		.cfi_def_cfa_offset 8
 242 009c BD46     		mov	sp, r7
 243              		.cfi_def_cfa_register 13
 244              		@ sp needed
 245 009e 80BD     		pop	{r7, pc}
 246              	.L15:
 247              		.align	2
 248              	.L14:
 249 00a0 05000000 		.word	sen6_on_line
 250 00a4 03000000 		.word	sen4_on_line
 251 00a8 04000000 		.word	sen5_on_line
 252              		.cfi_endproc
 253              	.LFE65:
 254              		.size	steer_bias_provider, .-steer_bias_provider
 255              		.global	__aeabi_ldivmod
 256              		.section	.text.isr_qd_Handler,"ax",%progbits
 257              		.align	2
 258              		.global	isr_qd_Handler
ARM GAS  C:\Users\ylee818\AppData\Local\Temp\ccpZH8oM.s 			page 7


 259              		.thumb
 260              		.thumb_func
 261              		.type	isr_qd_Handler, %function
 262              	isr_qd_Handler:
 263              	.LFB66:
  85:main.c        **** 
  86:main.c        **** /* -------------------------------
  87:main.c        ****  * 5 ms Timer ISR: accumulate distance
  88:main.c        ****  * ------------------------------- */
  89:main.c        **** CY_ISR(isr_qd_Handler)
  90:main.c        **** {
 264              		.loc 1 90 0
 265              		.cfi_startproc
 266              		@ args = 0, pretend = 0, frame = 72
 267              		@ frame_needed = 1, uses_anonymous_args = 0
 268 0000 2DE9F04F 		push	{r4, r5, r6, r7, r8, r9, r10, fp, lr}
 269              		.cfi_def_cfa_offset 36
 270              		.cfi_offset 4, -36
 271              		.cfi_offset 5, -32
 272              		.cfi_offset 6, -28
 273              		.cfi_offset 7, -24
 274              		.cfi_offset 8, -20
 275              		.cfi_offset 9, -16
 276              		.cfi_offset 10, -12
 277              		.cfi_offset 11, -8
 278              		.cfi_offset 14, -4
 279 0004 93B0     		sub	sp, sp, #76
 280              		.cfi_def_cfa_offset 112
 281 0006 00AF     		add	r7, sp, #0
 282              		.cfi_def_cfa_register 7
  91:main.c        ****     int32_t raw1 = QuadDec_M1_GetCounter();  QuadDec_M1_SetCounter(0);
 283              		.loc 1 91 0
 284 0008 FFF7FEFF 		bl	QuadDec_M1_GetCounter
 285 000c 0346     		mov	r3, r0
 286 000e 7B64     		str	r3, [r7, #68]
 287 0010 0020     		movs	r0, #0
 288 0012 FFF7FEFF 		bl	QuadDec_M1_SetCounter
  92:main.c        ****     int32_t raw2 = QuadDec_M2_GetCounter();  QuadDec_M2_SetCounter(0);
 289              		.loc 1 92 0
 290 0016 FFF7FEFF 		bl	QuadDec_M2_GetCounter
 291 001a 0346     		mov	r3, r0
 292 001c 3B64     		str	r3, [r7, #64]
 293 001e 0020     		movs	r0, #0
 294 0020 FFF7FEFF 		bl	QuadDec_M2_SetCounter
  93:main.c        **** 
  94:main.c        ****     /* direction-safe distance: abs(avg) * sign(sum) → mm */
  95:main.c        ****     int32_t d1 = raw1, d2 = raw2; // (ENC_SIGN가 동일하면 여기서 부호 반영 가능)
 295              		.loc 1 95 0
 296 0024 7B6C     		ldr	r3, [r7, #68]
 297 0026 FB63     		str	r3, [r7, #60]
 298 0028 3B6C     		ldr	r3, [r7, #64]
 299 002a BB63     		str	r3, [r7, #56]
  96:main.c        ****     int32_t a1 = (d1 >= 0) ? d1 : -d1;
 300              		.loc 1 96 0
 301 002c FB6B     		ldr	r3, [r7, #60]
 302 002e 002B     		cmp	r3, #0
 303 0030 B8BF     		it	lt
ARM GAS  C:\Users\ylee818\AppData\Local\Temp\ccpZH8oM.s 			page 8


 304 0032 5B42     		rsblt	r3, r3, #0
 305 0034 7B63     		str	r3, [r7, #52]
  97:main.c        ****     int32_t a2 = (d2 >= 0) ? d2 : -d2;
 306              		.loc 1 97 0
 307 0036 BB6B     		ldr	r3, [r7, #56]
 308 0038 002B     		cmp	r3, #0
 309 003a B8BF     		it	lt
 310 003c 5B42     		rsblt	r3, r3, #0
 311 003e 3B63     		str	r3, [r7, #48]
  98:main.c        ****     int32_t davg_abs  = (a1 + a2) / 2;
 312              		.loc 1 98 0
 313 0040 7A6B     		ldr	r2, [r7, #52]
 314 0042 3B6B     		ldr	r3, [r7, #48]
 315 0044 1344     		add	r3, r3, r2
 316 0046 DA0F     		lsrs	r2, r3, #31
 317 0048 1344     		add	r3, r3, r2
 318 004a 5B10     		asrs	r3, r3, #1
 319 004c FB62     		str	r3, [r7, #44]
  99:main.c        ****     int32_t davg_sign = ((d1 + d2) >= 0) ? +1 : -1;
 320              		.loc 1 99 0
 321 004e FA6B     		ldr	r2, [r7, #60]
 322 0050 BB6B     		ldr	r3, [r7, #56]
 323 0052 1344     		add	r3, r3, r2
 324 0054 002B     		cmp	r3, #0
 325 0056 01DB     		blt	.L17
 326              		.loc 1 99 0 is_stmt 0 discriminator 1
 327 0058 0123     		movs	r3, #1
 328 005a 01E0     		b	.L18
 329              	.L17:
 330              		.loc 1 99 0 discriminator 2
 331 005c 4FF0FF33 		mov	r3, #-1
 332              	.L18:
 333              		.loc 1 99 0 discriminator 4
 334 0060 BB62     		str	r3, [r7, #40]
 100:main.c        **** 
 101:main.c        ****     int64_t num_abs = (int64_t)davg_abs * MM_PER_COUNT_X1000;
 335              		.loc 1 101 0 is_stmt 1 discriminator 4
 336 0062 FB6A     		ldr	r3, [r7, #44]
 337 0064 1946     		mov	r1, r3
 338 0066 4FEAE172 		asr	r2, r1, #31
 339 006a 0B46     		mov	r3, r1
 340 006c 1446     		mov	r4, r2
 341 006e DB18     		adds	r3, r3, r3
 342 0070 44EB0404 		adc	r4, r4, r4
 343 0074 5B18     		adds	r3, r3, r1
 344 0076 44EB0204 		adc	r4, r4, r2
 345 007a 4FEA8409 		lsl	r9, r4, #2
 346 007e 49EA9379 		orr	r9, r9, r3, lsr #30
 347 0082 4FEA8308 		lsl	r8, r3, #2
 348 0086 4346     		mov	r3, r8
 349 0088 4C46     		mov	r4, r9
 350 008a 5B18     		adds	r3, r3, r1
 351 008c 44EB0204 		adc	r4, r4, r2
 352 0090 4FEAC40B 		lsl	fp, r4, #3
 353 0094 4BEA537B 		orr	fp, fp, r3, lsr #29
 354 0098 4FEAC30A 		lsl	r10, r3, #3
 355 009c 13EB0A03 		adds	r3, r3, r10
ARM GAS  C:\Users\ylee818\AppData\Local\Temp\ccpZH8oM.s 			page 9


 356 00a0 44EB0B04 		adc	r4, r4, fp
 357 00a4 E000     		lsls	r0, r4, #3
 358 00a6 7861     		str	r0, [r7, #20]
 359 00a8 7869     		ldr	r0, [r7, #20]
 360 00aa 40EA5370 		orr	r0, r0, r3, lsr #29
 361 00ae 7861     		str	r0, [r7, #20]
 362 00b0 DB00     		lsls	r3, r3, #3
 363 00b2 3B61     		str	r3, [r7, #16]
 364 00b4 D7E90434 		ldrd	r3, [r7, #16]
 365 00b8 5B18     		adds	r3, r3, r1
 366 00ba 44EB0204 		adc	r4, r4, r2
 367 00be C7E90834 		strd	r3, [r7, #32]
 102:main.c        ****     int32_t dmm_abs = (int32_t)((num_abs + 500) / 1000);
 368              		.loc 1 102 0 discriminator 4
 369 00c2 D7E90834 		ldrd	r3, [r7, #32]
 370 00c6 13F5FA70 		adds	r0, r3, #500
 371 00ca 44F10001 		adc	r1, r4, #0
 372 00ce 4FF47A72 		mov	r2, #1000
 373 00d2 4FF00003 		mov	r3, #0
 374 00d6 FFF7FEFF 		bl	__aeabi_ldivmod
 375 00da 0346     		mov	r3, r0
 376 00dc 0C46     		mov	r4, r1
 377 00de FB61     		str	r3, [r7, #28]
 103:main.c        ****     int32_t dmm_signed = APPLY_CALIB_DIST(dmm_abs) * davg_sign;
 378              		.loc 1 103 0 discriminator 4
 379 00e0 FB69     		ldr	r3, [r7, #28]
 380 00e2 1946     		mov	r1, r3
 381 00e4 4FEAE172 		asr	r2, r1, #31
 382 00e8 0B46     		mov	r3, r1
 383 00ea 1446     		mov	r4, r2
 384 00ec DB18     		adds	r3, r3, r3
 385 00ee 44EB0404 		adc	r4, r4, r4
 386 00f2 5B18     		adds	r3, r3, r1
 387 00f4 44EB0204 		adc	r4, r4, r2
 388 00f8 E000     		lsls	r0, r4, #3
 389 00fa F860     		str	r0, [r7, #12]
 390 00fc F868     		ldr	r0, [r7, #12]
 391 00fe 40EA5370 		orr	r0, r0, r3, lsr #29
 392 0102 F860     		str	r0, [r7, #12]
 393 0104 DB00     		lsls	r3, r3, #3
 394 0106 BB60     		str	r3, [r7, #8]
 395 0108 D7E90234 		ldrd	r3, [r7, #8]
 396 010c 5B18     		adds	r3, r3, r1
 397 010e 44EB0204 		adc	r4, r4, r2
 398 0112 2601     		lsls	r6, r4, #4
 399 0114 46EA1376 		orr	r6, r6, r3, lsr #28
 400 0118 1D01     		lsls	r5, r3, #4
 401 011a ED1A     		subs	r5, r5, r3
 402 011c 66EB0406 		sbc	r6, r6, r4
 403 0120 B300     		lsls	r3, r6, #2
 404 0122 7B60     		str	r3, [r7, #4]
 405 0124 7B68     		ldr	r3, [r7, #4]
 406 0126 43EA9573 		orr	r3, r3, r5, lsr #30
 407 012a 7B60     		str	r3, [r7, #4]
 408 012c AB00     		lsls	r3, r5, #2
 409 012e 3B60     		str	r3, [r7]
 410 0130 D7E90056 		ldrd	r5, [r7]
ARM GAS  C:\Users\ylee818\AppData\Local\Temp\ccpZH8oM.s 			page 10


 411 0134 2B46     		mov	r3, r5
 412 0136 3446     		mov	r4, r6
 413 0138 13F5FA70 		adds	r0, r3, #500
 414 013c 44F10001 		adc	r1, r4, #0
 415 0140 4FF47A72 		mov	r2, #1000
 416 0144 4FF00003 		mov	r3, #0
 417 0148 FFF7FEFF 		bl	__aeabi_ldivmod
 418 014c 0346     		mov	r3, r0
 419 014e 0C46     		mov	r4, r1
 420 0150 1A46     		mov	r2, r3
 421 0152 BB6A     		ldr	r3, [r7, #40]
 422 0154 03FB02F3 		mul	r3, r3, r2
 423 0158 BB61     		str	r3, [r7, #24]
 104:main.c        **** 
 105:main.c        ****     g_dist_mm += dmm_signed;
 424              		.loc 1 105 0 discriminator 4
 425 015a 064B     		ldr	r3, .L19
 426 015c 1A68     		ldr	r2, [r3]
 427 015e BB69     		ldr	r3, [r7, #24]
 428 0160 1344     		add	r3, r3, r2
 429 0162 044A     		ldr	r2, .L19
 430 0164 1360     		str	r3, [r2]
 106:main.c        **** 
 107:main.c        ****     (void)Timer_QD_ReadStatusRegister();     // clear TC
 431              		.loc 1 107 0 discriminator 4
 432 0166 FFF7FEFF 		bl	Timer_QD_ReadStatusRegister
 108:main.c        **** }
 433              		.loc 1 108 0 discriminator 4
 434 016a 00BF     		nop
 435 016c 4C37     		adds	r7, r7, #76
 436              		.cfi_def_cfa_offset 36
 437 016e BD46     		mov	sp, r7
 438              		.cfi_def_cfa_register 13
 439              		@ sp needed
 440 0170 BDE8F08F 		pop	{r4, r5, r6, r7, r8, r9, r10, fp, pc}
 441              	.L20:
 442              		.align	2
 443              	.L19:
 444 0174 08000000 		.word	g_dist_mm
 445              		.cfi_endproc
 446              	.LFE66:
 447              		.size	isr_qd_Handler, .-isr_qd_Handler
 448              		.section	.text.light_sensors_update_and_maybe_request_turn,"ax",%progbits
 449              		.align	2
 450              		.thumb
 451              		.thumb_func
 452              		.type	light_sensors_update_and_maybe_request_turn, %function
 453              	light_sensors_update_and_maybe_request_turn:
 454              	.LFB67:
 109:main.c        **** 
 110:main.c        **** /* -------------------------------------------------------------
 111:main.c        ****  * Read sensors and (maybe) request a turn based on S1 / S2 only
 112:main.c        ****  *  - S1/S2: relaxed band + hysteresis so they don’t need “dark-dark”
 113:main.c        ****  *  - S3..S6: keep the simple band (10..100) for steering trim
 114:main.c        ****  * ------------------------------------------------------------- */
 115:main.c        **** static void light_sensors_update_and_maybe_request_turn(void)
 116:main.c        **** {
ARM GAS  C:\Users\ylee818\AppData\Local\Temp\ccpZH8oM.s 			page 11


 455              		.loc 1 116 0
 456              		.cfi_startproc
 457              		@ args = 0, pretend = 0, frame = 24
 458              		@ frame_needed = 1, uses_anonymous_args = 0
 459 0000 80B5     		push	{r7, lr}
 460              		.cfi_def_cfa_offset 8
 461              		.cfi_offset 7, -8
 462              		.cfi_offset 14, -4
 463 0002 86B0     		sub	sp, sp, #24
 464              		.cfi_def_cfa_offset 32
 465 0004 00AF     		add	r7, sp, #0
 466              		.cfi_def_cfa_register 7
 117:main.c        ****     /* 1) Read ADC peak-to-peak (unchanged calls into sensors.c) */
 118:main.c        ****     uint16_t V1 = Sensor_ComputePeakToPeak(0);
 467              		.loc 1 118 0
 468 0006 0020     		movs	r0, #0
 469 0008 FFF7FEFF 		bl	Sensor_ComputePeakToPeak
 470 000c 0346     		mov	r3, r0
 471 000e FB82     		strh	r3, [r7, #22]	@ movhi
 119:main.c        ****     uint16_t V2 = Sensor_ComputePeakToPeak(1);
 472              		.loc 1 119 0
 473 0010 0120     		movs	r0, #1
 474 0012 FFF7FEFF 		bl	Sensor_ComputePeakToPeak
 475 0016 0346     		mov	r3, r0
 476 0018 BB82     		strh	r3, [r7, #20]	@ movhi
 120:main.c        ****     uint16_t V3 = Sensor_ComputePeakToPeak(2);
 477              		.loc 1 120 0
 478 001a 0220     		movs	r0, #2
 479 001c FFF7FEFF 		bl	Sensor_ComputePeakToPeak
 480 0020 0346     		mov	r3, r0
 481 0022 7B82     		strh	r3, [r7, #18]	@ movhi
 121:main.c        ****     uint16_t V4 = Sensor_ComputePeakToPeak(3);
 482              		.loc 1 121 0
 483 0024 0320     		movs	r0, #3
 484 0026 FFF7FEFF 		bl	Sensor_ComputePeakToPeak
 485 002a 0346     		mov	r3, r0
 486 002c 3B82     		strh	r3, [r7, #16]	@ movhi
 122:main.c        ****     uint16_t V5 = Sensor_ComputePeakToPeak(4);
 487              		.loc 1 122 0
 488 002e 0420     		movs	r0, #4
 489 0030 FFF7FEFF 		bl	Sensor_ComputePeakToPeak
 490 0034 0346     		mov	r3, r0
 491 0036 FB81     		strh	r3, [r7, #14]	@ movhi
 123:main.c        ****     uint16_t V6 = Sensor_ComputePeakToPeak(5);
 492              		.loc 1 123 0
 493 0038 0520     		movs	r0, #5
 494 003a FFF7FEFF 		bl	Sensor_ComputePeakToPeak
 495 003e 0346     		mov	r3, r0
 496 0040 BB81     		strh	r3, [r7, #12]	@ movhi
 124:main.c        **** 
 125:main.c        ****     /* 2) S1/S2 relaxed + hysteresis */
 126:main.c        ****     static uint8_t s1 = 0, s2 = 0;  // hysteresis memory (0=off, 1=on)
 127:main.c        **** 
 128:main.c        ****     uint8_t s1_enter = (V1 > S_MINC_COUNTS && V1 < S_MAXC_COUNTS);
 497              		.loc 1 128 0
 498 0042 FB8A     		ldrh	r3, [r7, #22]
 499 0044 022B     		cmp	r3, #2
ARM GAS  C:\Users\ylee818\AppData\Local\Temp\ccpZH8oM.s 			page 12


 500 0046 05D9     		bls	.L22
 501              		.loc 1 128 0 is_stmt 0 discriminator 1
 502 0048 FB8A     		ldrh	r3, [r7, #22]
 503 004a B3F5E17F 		cmp	r3, #450
 504 004e 01D2     		bcs	.L22
 505              		.loc 1 128 0 discriminator 3
 506 0050 0123     		movs	r3, #1
 507 0052 00E0     		b	.L23
 508              	.L22:
 509              		.loc 1 128 0 discriminator 4
 510 0054 0023     		movs	r3, #0
 511              	.L23:
 512              		.loc 1 128 0 discriminator 6
 513 0056 FB72     		strb	r3, [r7, #11]
 129:main.c        ****     uint8_t s2_enter = (V2 > S_MINC_COUNTS && V2 < S_MAXC_COUNTS);
 514              		.loc 1 129 0 is_stmt 1 discriminator 6
 515 0058 BB8A     		ldrh	r3, [r7, #20]
 516 005a 022B     		cmp	r3, #2
 517 005c 05D9     		bls	.L24
 518              		.loc 1 129 0 is_stmt 0 discriminator 1
 519 005e BB8A     		ldrh	r3, [r7, #20]
 520 0060 B3F5E17F 		cmp	r3, #450
 521 0064 01D2     		bcs	.L24
 522              		.loc 1 129 0 discriminator 3
 523 0066 0123     		movs	r3, #1
 524 0068 00E0     		b	.L25
 525              	.L24:
 526              		.loc 1 129 0 discriminator 4
 527 006a 0023     		movs	r3, #0
 528              	.L25:
 529              		.loc 1 129 0 discriminator 6
 530 006c BB72     		strb	r3, [r7, #10]
 130:main.c        **** 
 131:main.c        ****     uint8_t s1_exit  = (V1 > (S_MAXC_COUNTS + S_HYST_COUNTS)) ||
 531              		.loc 1 131 0 is_stmt 1 discriminator 6
 532 006e FB8A     		ldrh	r3, [r7, #22]
 533 0070 B3F5E97F 		cmp	r3, #466
 534 0074 03D8     		bhi	.L26
 132:main.c        ****                        ((V1 + S_HYST_COUNTS) < S_MINC_COUNTS);
 535              		.loc 1 132 0 discriminator 2
 536 0076 FB8A     		ldrh	r3, [r7, #22]
 537 0078 1033     		adds	r3, r3, #16
 131:main.c        ****                        ((V1 + S_HYST_COUNTS) < S_MINC_COUNTS);
 538              		.loc 1 131 0 discriminator 2
 539 007a 012B     		cmp	r3, #1
 540 007c 01D8     		bhi	.L27
 541              	.L26:
 131:main.c        ****                        ((V1 + S_HYST_COUNTS) < S_MINC_COUNTS);
 542              		.loc 1 131 0 is_stmt 0 discriminator 3
 543 007e 0123     		movs	r3, #1
 544 0080 00E0     		b	.L28
 545              	.L27:
 131:main.c        ****                        ((V1 + S_HYST_COUNTS) < S_MINC_COUNTS);
 546              		.loc 1 131 0 discriminator 4
 547 0082 0023     		movs	r3, #0
 548              	.L28:
 131:main.c        ****                        ((V1 + S_HYST_COUNTS) < S_MINC_COUNTS);
ARM GAS  C:\Users\ylee818\AppData\Local\Temp\ccpZH8oM.s 			page 13


 549              		.loc 1 131 0 discriminator 6
 550 0084 7B72     		strb	r3, [r7, #9]
 133:main.c        ****     uint8_t s2_exit  = (V2 > (S_MAXC_COUNTS + S_HYST_COUNTS)) ||
 551              		.loc 1 133 0 is_stmt 1 discriminator 6
 552 0086 BB8A     		ldrh	r3, [r7, #20]
 553 0088 B3F5E97F 		cmp	r3, #466
 554 008c 03D8     		bhi	.L29
 134:main.c        ****                        ((V2 + S_HYST_COUNTS) < S_MINC_COUNTS);
 555              		.loc 1 134 0 discriminator 2
 556 008e BB8A     		ldrh	r3, [r7, #20]
 557 0090 1033     		adds	r3, r3, #16
 133:main.c        ****     uint8_t s2_exit  = (V2 > (S_MAXC_COUNTS + S_HYST_COUNTS)) ||
 558              		.loc 1 133 0 discriminator 2
 559 0092 012B     		cmp	r3, #1
 560 0094 01D8     		bhi	.L30
 561              	.L29:
 133:main.c        ****     uint8_t s2_exit  = (V2 > (S_MAXC_COUNTS + S_HYST_COUNTS)) ||
 562              		.loc 1 133 0 is_stmt 0 discriminator 3
 563 0096 0123     		movs	r3, #1
 564 0098 00E0     		b	.L31
 565              	.L30:
 133:main.c        ****     uint8_t s2_exit  = (V2 > (S_MAXC_COUNTS + S_HYST_COUNTS)) ||
 566              		.loc 1 133 0 discriminator 4
 567 009a 0023     		movs	r3, #0
 568              	.L31:
 133:main.c        ****     uint8_t s2_exit  = (V2 > (S_MAXC_COUNTS + S_HYST_COUNTS)) ||
 569              		.loc 1 133 0 discriminator 6
 570 009c 3B72     		strb	r3, [r7, #8]
 135:main.c        **** 
 136:main.c        ****     if (!s1) s1 = s1_enter ? 1u : 0u;
 571              		.loc 1 136 0 is_stmt 1 discriminator 6
 572 009e 6F4B     		ldr	r3, .L65
 573 00a0 1B78     		ldrb	r3, [r3]	@ zero_extendqisi2
 574 00a2 002B     		cmp	r3, #0
 575 00a4 08D1     		bne	.L32
 576              		.loc 1 136 0 is_stmt 0 discriminator 1
 577 00a6 FB7A     		ldrb	r3, [r7, #11]	@ zero_extendqisi2
 578 00a8 002B     		cmp	r3, #0
 579 00aa 01D0     		beq	.L33
 580              		.loc 1 136 0 discriminator 2
 581 00ac 0122     		movs	r2, #1
 582 00ae 00E0     		b	.L34
 583              	.L33:
 584              		.loc 1 136 0 discriminator 3
 585 00b0 0022     		movs	r2, #0
 586              	.L34:
 587              		.loc 1 136 0 discriminator 5
 588 00b2 6A4B     		ldr	r3, .L65
 589 00b4 1A70     		strb	r2, [r3]
 590 00b6 08E0     		b	.L35
 591              	.L32:
 137:main.c        ****     else     s1 = s1_exit  ? 0u : 1u;
 592              		.loc 1 137 0 is_stmt 1
 593 00b8 7B7A     		ldrb	r3, [r7, #9]	@ zero_extendqisi2
 594 00ba 002B     		cmp	r3, #0
 595 00bc 0CBF     		ite	eq
 596 00be 0123     		moveq	r3, #1
ARM GAS  C:\Users\ylee818\AppData\Local\Temp\ccpZH8oM.s 			page 14


 597 00c0 0023     		movne	r3, #0
 598 00c2 DBB2     		uxtb	r3, r3
 599 00c4 1A46     		mov	r2, r3
 600 00c6 654B     		ldr	r3, .L65
 601 00c8 1A70     		strb	r2, [r3]
 602              	.L35:
 138:main.c        **** 
 139:main.c        ****     if (!s2) s2 = s2_enter ? 1u : 0u;
 603              		.loc 1 139 0
 604 00ca 654B     		ldr	r3, .L65+4
 605 00cc 1B78     		ldrb	r3, [r3]	@ zero_extendqisi2
 606 00ce 002B     		cmp	r3, #0
 607 00d0 08D1     		bne	.L36
 608              		.loc 1 139 0 is_stmt 0 discriminator 1
 609 00d2 BB7A     		ldrb	r3, [r7, #10]	@ zero_extendqisi2
 610 00d4 002B     		cmp	r3, #0
 611 00d6 01D0     		beq	.L37
 612              		.loc 1 139 0 discriminator 2
 613 00d8 0122     		movs	r2, #1
 614 00da 00E0     		b	.L38
 615              	.L37:
 616              		.loc 1 139 0 discriminator 3
 617 00dc 0022     		movs	r2, #0
 618              	.L38:
 619              		.loc 1 139 0 discriminator 5
 620 00de 604B     		ldr	r3, .L65+4
 621 00e0 1A70     		strb	r2, [r3]
 622 00e2 08E0     		b	.L39
 623              	.L36:
 140:main.c        ****     else     s2 = s2_exit  ? 0u : 1u;
 624              		.loc 1 140 0 is_stmt 1
 625 00e4 3B7A     		ldrb	r3, [r7, #8]	@ zero_extendqisi2
 626 00e6 002B     		cmp	r3, #0
 627 00e8 0CBF     		ite	eq
 628 00ea 0123     		moveq	r3, #1
 629 00ec 0023     		movne	r3, #0
 630 00ee DBB2     		uxtb	r3, r3
 631 00f0 1A46     		mov	r2, r3
 632 00f2 5B4B     		ldr	r3, .L65+4
 633 00f4 1A70     		strb	r2, [r3]
 634              	.L39:
 141:main.c        **** 
 142:main.c        ****     sen1_on_line = s1;
 635              		.loc 1 142 0
 636 00f6 594B     		ldr	r3, .L65
 637 00f8 1A78     		ldrb	r2, [r3]	@ zero_extendqisi2
 638 00fa 5A4B     		ldr	r3, .L65+8
 639 00fc 1A70     		strb	r2, [r3]
 143:main.c        ****     sen2_on_line = s2;
 640              		.loc 1 143 0
 641 00fe 584B     		ldr	r3, .L65+4
 642 0100 1A78     		ldrb	r2, [r3]	@ zero_extendqisi2
 643 0102 594B     		ldr	r3, .L65+12
 644 0104 1A70     		strb	r2, [r3]
 144:main.c        **** 
 145:main.c        ****     /* 3) S3..S6 keep simple band (adjust if you want later) */
 146:main.c        ****     sen3_on_line = (V3 > 10 && V3 < 100) ? 1u : 0u;
ARM GAS  C:\Users\ylee818\AppData\Local\Temp\ccpZH8oM.s 			page 15


 645              		.loc 1 146 0
 646 0106 7B8A     		ldrh	r3, [r7, #18]
 647 0108 0A2B     		cmp	r3, #10
 648 010a 04D9     		bls	.L40
 649              		.loc 1 146 0 is_stmt 0 discriminator 1
 650 010c 7B8A     		ldrh	r3, [r7, #18]
 651 010e 632B     		cmp	r3, #99
 652 0110 01D8     		bhi	.L40
 653              		.loc 1 146 0 discriminator 3
 654 0112 0122     		movs	r2, #1
 655 0114 00E0     		b	.L41
 656              	.L40:
 657              		.loc 1 146 0 discriminator 4
 658 0116 0022     		movs	r2, #0
 659              	.L41:
 660              		.loc 1 146 0 discriminator 6
 661 0118 544B     		ldr	r3, .L65+16
 662 011a 1A70     		strb	r2, [r3]
 147:main.c        ****     sen4_on_line = (V4 > 10 && V4 < 100) ? 1u : 0u;
 663              		.loc 1 147 0 is_stmt 1 discriminator 6
 664 011c 3B8A     		ldrh	r3, [r7, #16]
 665 011e 0A2B     		cmp	r3, #10
 666 0120 04D9     		bls	.L42
 667              		.loc 1 147 0 is_stmt 0 discriminator 1
 668 0122 3B8A     		ldrh	r3, [r7, #16]
 669 0124 632B     		cmp	r3, #99
 670 0126 01D8     		bhi	.L42
 671              		.loc 1 147 0 discriminator 3
 672 0128 0122     		movs	r2, #1
 673 012a 00E0     		b	.L43
 674              	.L42:
 675              		.loc 1 147 0 discriminator 4
 676 012c 0022     		movs	r2, #0
 677              	.L43:
 678              		.loc 1 147 0 discriminator 6
 679 012e 504B     		ldr	r3, .L65+20
 680 0130 1A70     		strb	r2, [r3]
 148:main.c        ****     sen5_on_line = (V5 > 10 && V5 < 100) ? 1u : 0u;
 681              		.loc 1 148 0 is_stmt 1 discriminator 6
 682 0132 FB89     		ldrh	r3, [r7, #14]
 683 0134 0A2B     		cmp	r3, #10
 684 0136 04D9     		bls	.L44
 685              		.loc 1 148 0 is_stmt 0 discriminator 1
 686 0138 FB89     		ldrh	r3, [r7, #14]
 687 013a 632B     		cmp	r3, #99
 688 013c 01D8     		bhi	.L44
 689              		.loc 1 148 0 discriminator 3
 690 013e 0122     		movs	r2, #1
 691 0140 00E0     		b	.L45
 692              	.L44:
 693              		.loc 1 148 0 discriminator 4
 694 0142 0022     		movs	r2, #0
 695              	.L45:
 696              		.loc 1 148 0 discriminator 6
 697 0144 4B4B     		ldr	r3, .L65+24
 698 0146 1A70     		strb	r2, [r3]
 149:main.c        ****     sen6_on_line = (V6 > 10 && V6 < 100) ? 1u : 0u;
ARM GAS  C:\Users\ylee818\AppData\Local\Temp\ccpZH8oM.s 			page 16


 699              		.loc 1 149 0 is_stmt 1 discriminator 6
 700 0148 BB89     		ldrh	r3, [r7, #12]
 701 014a 0A2B     		cmp	r3, #10
 702 014c 04D9     		bls	.L46
 703              		.loc 1 149 0 is_stmt 0 discriminator 1
 704 014e BB89     		ldrh	r3, [r7, #12]
 705 0150 632B     		cmp	r3, #99
 706 0152 01D8     		bhi	.L46
 707              		.loc 1 149 0 discriminator 3
 708 0154 0122     		movs	r2, #1
 709 0156 00E0     		b	.L47
 710              	.L46:
 711              		.loc 1 149 0 discriminator 4
 712 0158 0022     		movs	r2, #0
 713              	.L47:
 714              		.loc 1 149 0 discriminator 6
 715 015a 474B     		ldr	r3, .L65+28
 716 015c 1A70     		strb	r2, [r3]
 150:main.c        **** 
 151:main.c        ****     /* 4) Turn request on S1/S2: debounce + latch + must-clear-first arming */
 152:main.c        ****     static uint8_t debL = 0, debR = 0;     // debounce counters
 153:main.c        ****     static uint8_t latched_any = 0;        // blocks re-trigger until clear
 154:main.c        ****     static uint8_t armed = 0;              // allow turns only after clear period
 155:main.c        ****     static uint8_t clear_cnt = 0;
 156:main.c        **** 
 157:main.c        ****     uint8_t left_now  = sen1_on_line;
 717              		.loc 1 157 0 is_stmt 1 discriminator 6
 718 015e 414B     		ldr	r3, .L65+8
 719 0160 1B78     		ldrb	r3, [r3]
 720 0162 FB71     		strb	r3, [r7, #7]
 158:main.c        ****     uint8_t right_now = sen2_on_line;
 721              		.loc 1 158 0 discriminator 6
 722 0164 404B     		ldr	r3, .L65+12
 723 0166 1B78     		ldrb	r3, [r3]
 724 0168 BB71     		strb	r3, [r7, #6]
 159:main.c        ****     uint8_t both_clear_now = (uint8_t)(!left_now && !right_now);
 725              		.loc 1 159 0 discriminator 6
 726 016a FB79     		ldrb	r3, [r7, #7]	@ zero_extendqisi2
 727 016c 002B     		cmp	r3, #0
 728 016e 04D1     		bne	.L48
 729              		.loc 1 159 0 is_stmt 0 discriminator 1
 730 0170 BB79     		ldrb	r3, [r7, #6]	@ zero_extendqisi2
 731 0172 002B     		cmp	r3, #0
 732 0174 01D1     		bne	.L48
 733              		.loc 1 159 0 discriminator 3
 734 0176 0123     		movs	r3, #1
 735 0178 00E0     		b	.L49
 736              	.L48:
 737              		.loc 1 159 0 discriminator 4
 738 017a 0023     		movs	r3, #0
 739              	.L49:
 740              		.loc 1 159 0 discriminator 6
 741 017c 7B71     		strb	r3, [r7, #5]
 160:main.c        **** 
 161:main.c        ****     // must-clear-first
 162:main.c        ****     if (both_clear_now) {
 742              		.loc 1 162 0 is_stmt 1 discriminator 6
ARM GAS  C:\Users\ylee818\AppData\Local\Temp\ccpZH8oM.s 			page 17


 743 017e 7B79     		ldrb	r3, [r7, #5]	@ zero_extendqisi2
 744 0180 002B     		cmp	r3, #0
 745 0182 11D0     		beq	.L50
 163:main.c        ****         if (clear_cnt < CLEAR_ARM_TICKS) clear_cnt++;
 746              		.loc 1 163 0
 747 0184 3D4B     		ldr	r3, .L65+32
 748 0186 1B78     		ldrb	r3, [r3]	@ zero_extendqisi2
 749 0188 032B     		cmp	r3, #3
 750 018a 05D8     		bhi	.L51
 751              		.loc 1 163 0 is_stmt 0 discriminator 1
 752 018c 3B4B     		ldr	r3, .L65+32
 753 018e 1B78     		ldrb	r3, [r3]	@ zero_extendqisi2
 754 0190 0133     		adds	r3, r3, #1
 755 0192 DAB2     		uxtb	r2, r3
 756 0194 394B     		ldr	r3, .L65+32
 757 0196 1A70     		strb	r2, [r3]
 758              	.L51:
 164:main.c        ****         if (clear_cnt >= CLEAR_ARM_TICKS) armed = 1u;
 759              		.loc 1 164 0 is_stmt 1
 760 0198 384B     		ldr	r3, .L65+32
 761 019a 1B78     		ldrb	r3, [r3]	@ zero_extendqisi2
 762 019c 032B     		cmp	r3, #3
 763 019e 06D9     		bls	.L53
 764              		.loc 1 164 0 is_stmt 0 discriminator 1
 765 01a0 374B     		ldr	r3, .L65+36
 766 01a2 0122     		movs	r2, #1
 767 01a4 1A70     		strb	r2, [r3]
 768 01a6 02E0     		b	.L53
 769              	.L50:
 165:main.c        ****     } else {
 166:main.c        ****         clear_cnt = 0;
 770              		.loc 1 166 0 is_stmt 1
 771 01a8 344B     		ldr	r3, .L65+32
 772 01aa 0022     		movs	r2, #0
 773 01ac 1A70     		strb	r2, [r3]
 774              	.L53:
 167:main.c        ****     }
 168:main.c        **** 
 169:main.c        ****     // debounce each side
 170:main.c        ****     debL = left_now  ? (uint8_t)(debL + 1u) : 0u;
 775              		.loc 1 170 0
 776 01ae FB79     		ldrb	r3, [r7, #7]	@ zero_extendqisi2
 777 01b0 002B     		cmp	r3, #0
 778 01b2 04D0     		beq	.L54
 779              		.loc 1 170 0 is_stmt 0 discriminator 1
 780 01b4 334B     		ldr	r3, .L65+40
 781 01b6 1B78     		ldrb	r3, [r3]	@ zero_extendqisi2
 782 01b8 0133     		adds	r3, r3, #1
 783 01ba DBB2     		uxtb	r3, r3
 784 01bc 00E0     		b	.L55
 785              	.L54:
 786              		.loc 1 170 0 discriminator 2
 787 01be 0023     		movs	r3, #0
 788              	.L55:
 789              		.loc 1 170 0 discriminator 4
 790 01c0 304A     		ldr	r2, .L65+40
 791 01c2 1370     		strb	r3, [r2]
ARM GAS  C:\Users\ylee818\AppData\Local\Temp\ccpZH8oM.s 			page 18


 171:main.c        ****     debR = right_now ? (uint8_t)(debR + 1u) : 0u;
 792              		.loc 1 171 0 is_stmt 1 discriminator 4
 793 01c4 BB79     		ldrb	r3, [r7, #6]	@ zero_extendqisi2
 794 01c6 002B     		cmp	r3, #0
 795 01c8 04D0     		beq	.L56
 796              		.loc 1 171 0 is_stmt 0 discriminator 1
 797 01ca 2F4B     		ldr	r3, .L65+44
 798 01cc 1B78     		ldrb	r3, [r3]	@ zero_extendqisi2
 799 01ce 0133     		adds	r3, r3, #1
 800 01d0 DBB2     		uxtb	r3, r3
 801 01d2 00E0     		b	.L57
 802              	.L56:
 803              		.loc 1 171 0 discriminator 2
 804 01d4 0023     		movs	r3, #0
 805              	.L57:
 806              		.loc 1 171 0 discriminator 4
 807 01d6 2C4A     		ldr	r2, .L65+44
 808 01d8 1370     		strb	r3, [r2]
 172:main.c        **** 
 173:main.c        ****     uint8_t left_stable  = (debL >= TURN_DEBOUNCE_TICKS);
 809              		.loc 1 173 0 is_stmt 1 discriminator 4
 810 01da 2A4B     		ldr	r3, .L65+40
 811 01dc 1B78     		ldrb	r3, [r3]	@ zero_extendqisi2
 812 01de 042B     		cmp	r3, #4
 813 01e0 8CBF     		ite	hi
 814 01e2 0123     		movhi	r3, #1
 815 01e4 0023     		movls	r3, #0
 816 01e6 DBB2     		uxtb	r3, r3
 817 01e8 3B71     		strb	r3, [r7, #4]
 174:main.c        ****     uint8_t right_stable = (debR >= TURN_DEBOUNCE_TICKS);
 818              		.loc 1 174 0 discriminator 4
 819 01ea 274B     		ldr	r3, .L65+44
 820 01ec 1B78     		ldrb	r3, [r3]	@ zero_extendqisi2
 821 01ee 042B     		cmp	r3, #4
 822 01f0 8CBF     		ite	hi
 823 01f2 0123     		movhi	r3, #1
 824 01f4 0023     		movls	r3, #0
 825 01f6 DBB2     		uxtb	r3, r3
 826 01f8 FB70     		strb	r3, [r7, #3]
 175:main.c        ****     uint8_t any_now      = (uint8_t)(left_stable | right_stable);
 827              		.loc 1 175 0 discriminator 4
 828 01fa 3A79     		ldrb	r2, [r7, #4]
 829 01fc FB78     		ldrb	r3, [r7, #3]
 830 01fe 1343     		orrs	r3, r3, r2
 831 0200 BB70     		strb	r3, [r7, #2]
 176:main.c        **** 
 177:main.c        ****     if (g_direction == 0u){
 832              		.loc 1 177 0 discriminator 4
 833 0202 224B     		ldr	r3, .L65+48
 834 0204 1B78     		ldrb	r3, [r3]
 835 0206 DBB2     		uxtb	r3, r3
 836 0208 002B     		cmp	r3, #0
 837 020a 20D1     		bne	.L58
 178:main.c        ****         if (armed && !latched_any && any_now){
 838              		.loc 1 178 0
 839 020c 1C4B     		ldr	r3, .L65+36
 840 020e 1B78     		ldrb	r3, [r3]	@ zero_extendqisi2
ARM GAS  C:\Users\ylee818\AppData\Local\Temp\ccpZH8oM.s 			page 19


 841 0210 002B     		cmp	r3, #0
 842 0212 15D0     		beq	.L59
 843              		.loc 1 178 0 is_stmt 0 discriminator 1
 844 0214 1E4B     		ldr	r3, .L65+52
 845 0216 1B78     		ldrb	r3, [r3]	@ zero_extendqisi2
 846 0218 002B     		cmp	r3, #0
 847 021a 11D1     		bne	.L59
 848              		.loc 1 178 0 discriminator 2
 849 021c BB78     		ldrb	r3, [r7, #2]	@ zero_extendqisi2
 850 021e 002B     		cmp	r3, #0
 851 0220 0ED0     		beq	.L59
 179:main.c        ****             g_direction = left_stable ? 1u : 2u;   // 1=LEFT (S1), 2=RIGHT (S2)
 852              		.loc 1 179 0 is_stmt 1
 853 0222 3B79     		ldrb	r3, [r7, #4]	@ zero_extendqisi2
 854 0224 002B     		cmp	r3, #0
 855 0226 01D0     		beq	.L60
 856              		.loc 1 179 0 is_stmt 0 discriminator 1
 857 0228 0122     		movs	r2, #1
 858 022a 00E0     		b	.L61
 859              	.L60:
 860              		.loc 1 179 0 discriminator 2
 861 022c 0222     		movs	r2, #2
 862              	.L61:
 863              		.loc 1 179 0 discriminator 4
 864 022e 174B     		ldr	r3, .L65+48
 865 0230 1A70     		strb	r2, [r3]
 180:main.c        ****             latched_any = 1u;
 866              		.loc 1 180 0 is_stmt 1 discriminator 4
 867 0232 174B     		ldr	r3, .L65+52
 868 0234 0122     		movs	r2, #1
 869 0236 1A70     		strb	r2, [r3]
 181:main.c        ****             armed = 0u;                            // require clear again before next turn
 870              		.loc 1 181 0 discriminator 4
 871 0238 114B     		ldr	r3, .L65+36
 872 023a 0022     		movs	r2, #0
 873 023c 1A70     		strb	r2, [r3]
 182:main.c        ****         } else if (!any_now){
 183:main.c        ****             latched_any = 0u;                      // re-arm latch when clear
 184:main.c        ****         }
 185:main.c        ****     } else {
 186:main.c        ****         latched_any = 1u;                          // turning/queued; keep latched
 187:main.c        ****     }
 188:main.c        **** }
 874              		.loc 1 188 0 discriminator 4
 875 023e 09E0     		b	.L64
 876              	.L59:
 182:main.c        ****         } else if (!any_now){
 877              		.loc 1 182 0
 878 0240 BB78     		ldrb	r3, [r7, #2]	@ zero_extendqisi2
 879 0242 002B     		cmp	r3, #0
 880 0244 06D1     		bne	.L64
 183:main.c        ****         }
 881              		.loc 1 183 0
 882 0246 124B     		ldr	r3, .L65+52
 883 0248 0022     		movs	r2, #0
 884 024a 1A70     		strb	r2, [r3]
 885              		.loc 1 188 0
ARM GAS  C:\Users\ylee818\AppData\Local\Temp\ccpZH8oM.s 			page 20


 886 024c 02E0     		b	.L64
 887              	.L58:
 186:main.c        ****     }
 888              		.loc 1 186 0
 889 024e 104B     		ldr	r3, .L65+52
 890 0250 0122     		movs	r2, #1
 891 0252 1A70     		strb	r2, [r3]
 892              	.L64:
 893              		.loc 1 188 0
 894 0254 00BF     		nop
 895 0256 1837     		adds	r7, r7, #24
 896              		.cfi_def_cfa_offset 8
 897 0258 BD46     		mov	sp, r7
 898              		.cfi_def_cfa_register 13
 899              		@ sp needed
 900 025a 80BD     		pop	{r7, pc}
 901              	.L66:
 902              		.align	2
 903              	.L65:
 904 025c 0C000000 		.word	s1.8250
 905 0260 0D000000 		.word	s2.8251
 906 0264 00000000 		.word	sen1_on_line
 907 0268 01000000 		.word	sen2_on_line
 908 026c 02000000 		.word	sen3_on_line
 909 0270 03000000 		.word	sen4_on_line
 910 0274 04000000 		.word	sen5_on_line
 911 0278 05000000 		.word	sen6_on_line
 912 027c 0E000000 		.word	clear_cnt.8260
 913 0280 0F000000 		.word	armed.8259
 914 0284 10000000 		.word	debL.8256
 915 0288 11000000 		.word	debR.8257
 916 028c 06000000 		.word	g_direction
 917 0290 12000000 		.word	latched_any.8258
 918              		.cfi_endproc
 919              	.LFE67:
 920              		.size	light_sensors_update_and_maybe_request_turn, .-light_sensors_update_and_maybe_request_turn
 921              		.section	.text.main,"ax",%progbits
 922              		.align	2
 923              		.global	main
 924              		.thumb
 925              		.thumb_func
 926              		.type	main, %function
 927              	main:
 928              	.LFB68:
 189:main.c        **** 
 190:main.c        **** /* ============================= main ============================= */
 191:main.c        **** int main(void)
 192:main.c        **** {
 929              		.loc 1 192 0
 930              		.cfi_startproc
 931              		@ args = 0, pretend = 0, frame = 8
 932              		@ frame_needed = 1, uses_anonymous_args = 0
 933 0000 80B5     		push	{r7, lr}
 934              		.cfi_def_cfa_offset 8
 935              		.cfi_offset 7, -8
 936              		.cfi_offset 14, -4
 937 0002 82B0     		sub	sp, sp, #8
ARM GAS  C:\Users\ylee818\AppData\Local\Temp\ccpZH8oM.s 			page 21


 938              		.cfi_def_cfa_offset 16
 939 0004 00AF     		add	r7, sp, #0
 940              		.cfi_def_cfa_register 7
 193:main.c        ****     CyGlobalIntEnable;
 941              		.loc 1 193 0
 942              		.syntax unified
 943              	@ 193 "main.c" 1
 944 0006 62B6     		CPSIE   i
 945              	@ 0 "" 2
 194:main.c        **** 
 195:main.c        ****     /* ADC for sensors */
 196:main.c        ****     ADC_Start();
 946              		.loc 1 196 0
 947              		.thumb
 948              		.syntax unified
 949 0008 FFF7FEFF 		bl	ADC_Start
 197:main.c        **** 
 198:main.c        ****     /* Encoders + 5 ms tick (distance only; speed 제어는 단순 듀티) */
 199:main.c        ****     Clock_QENC_Start();
 950              		.loc 1 199 0
 951 000c FFF7FEFF 		bl	Clock_QENC_Start
 200:main.c        ****     QuadDec_M1_Start(); QuadDec_M2_Start();
 952              		.loc 1 200 0
 953 0010 FFF7FEFF 		bl	QuadDec_M1_Start
 954 0014 FFF7FEFF 		bl	QuadDec_M2_Start
 201:main.c        ****     QuadDec_M1_SetCounter(0); QuadDec_M2_SetCounter(0);
 955              		.loc 1 201 0
 956 0018 0020     		movs	r0, #0
 957 001a FFF7FEFF 		bl	QuadDec_M1_SetCounter
 958 001e 0020     		movs	r0, #0
 959 0020 FFF7FEFF 		bl	QuadDec_M2_SetCounter
 202:main.c        **** 
 203:main.c        ****     Clock_QD_Start();
 960              		.loc 1 203 0
 961 0024 FFF7FEFF 		bl	Clock_QD_Start
 204:main.c        ****     Timer_QD_Start();                  // 5 ms period in TopDesign
 962              		.loc 1 204 0
 963 0028 FFF7FEFF 		bl	Timer_QD_Start
 205:main.c        ****     isr_qd_StartEx(isr_qd_Handler);
 964              		.loc 1 205 0
 965 002c 3A48     		ldr	r0, .L77
 966 002e FFF7FEFF 		bl	isr_qd_StartEx
 206:main.c        **** 
 207:main.c        ****     /* PWM & motor driver */
 208:main.c        ****     Clock_PWM_Start();
 967              		.loc 1 208 0
 968 0032 FFF7FEFF 		bl	Clock_PWM_Start
 209:main.c        ****     PWM_1_Start(); PWM_2_Start();
 969              		.loc 1 209 0
 970 0036 FFF7FEFF 		bl	PWM_1_Start
 971 003a FFF7FEFF 		bl	PWM_2_Start
 210:main.c        ****     PWM_1_WritePeriod(PWM_PERIOD);
 972              		.loc 1 210 0
 973 003e C820     		movs	r0, #200
 974 0040 FFF7FEFF 		bl	PWM_1_WritePeriod
 211:main.c        ****     PWM_2_WritePeriod(PWM_PERIOD);
 975              		.loc 1 211 0
ARM GAS  C:\Users\ylee818\AppData\Local\Temp\ccpZH8oM.s 			page 22


 976 0044 C820     		movs	r0, #200
 977 0046 FFF7FEFF 		bl	PWM_2_WritePeriod
 212:main.c        ****     motor_enable(0u, 0u);              // enable both
 978              		.loc 1 212 0
 979 004a 0021     		movs	r1, #0
 980 004c 0020     		movs	r0, #0
 981 004e FFF7FEFF 		bl	motor_enable
 213:main.c        ****     set_motors_symmetric(0);
 982              		.loc 1 213 0
 983 0052 0020     		movs	r0, #0
 984 0054 FFF7FEFF 		bl	set_motors_symmetric
 214:main.c        **** 
 215:main.c        ****     /* Directions module */
 216:main.c        ****     Directions_Init();
 985              		.loc 1 216 0
 986 0058 FFF7FEFF 		bl	Directions_Init
 217:main.c        ****     g_direction = 0u;                  // clean start: straight mode
 987              		.loc 1 217 0
 988 005c 2F4B     		ldr	r3, .L77+4
 989 005e 0022     		movs	r2, #0
 990 0060 1A70     		strb	r2, [r3]
 218:main.c        **** 
 219:main.c        ****     /* Simple cruise center duty from target speed (feed-forward only) */
 220:main.c        ****     /*  v_target / VMAX ~= duty%, deadband는 motor.c 내부에서 처리됨 */
 221:main.c        ****     int center_duty_est = (int)((V_CRUISE_MM_S * 100) / VMAX_CONST_MM_S);
 991              		.loc 1 221 0
 992 0062 1923     		movs	r3, #25
 993 0064 7B60     		str	r3, [r7, #4]
 222:main.c        ****     if (center_duty_est < 0) center_duty_est = 0;
 994              		.loc 1 222 0
 995 0066 7B68     		ldr	r3, [r7, #4]
 996 0068 002B     		cmp	r3, #0
 997 006a 01DA     		bge	.L68
 998              		.loc 1 222 0 is_stmt 0 discriminator 1
 999 006c 0023     		movs	r3, #0
 1000 006e 7B60     		str	r3, [r7, #4]
 1001              	.L68:
 223:main.c        ****     if (center_duty_est > 100) center_duty_est = 100;
 1002              		.loc 1 223 0 is_stmt 1
 1003 0070 7B68     		ldr	r3, [r7, #4]
 1004 0072 642B     		cmp	r3, #100
 1005 0074 01DD     		ble	.L69
 1006              		.loc 1 223 0 is_stmt 0 discriminator 1
 1007 0076 6423     		movs	r3, #100
 1008 0078 7B60     		str	r3, [r7, #4]
 1009              	.L69:
 1010              	.LBB2:
 224:main.c        **** 
 225:main.c        ****     for(;;){
 226:main.c        ****         /* FIRST THING: stoping */
 227:main.c        ****         g_stop_now = (g_dist_mm >= TARGET_DIST_MM) ? 1u : 0u;
 1011              		.loc 1 227 0 is_stmt 1
 1012 007a 294B     		ldr	r3, .L77+8
 1013 007c 1B68     		ldr	r3, [r3]
 1014 007e 40F24B42 		movw	r2, #1099
 1015 0082 9342     		cmp	r3, r2
 1016 0084 01DD     		ble	.L70
ARM GAS  C:\Users\ylee818\AppData\Local\Temp\ccpZH8oM.s 			page 23


 1017              		.loc 1 227 0 is_stmt 0 discriminator 1
 1018 0086 0122     		movs	r2, #1
 1019 0088 00E0     		b	.L71
 1020              	.L70:
 1021              		.loc 1 227 0 discriminator 2
 1022 008a 0022     		movs	r2, #0
 1023              	.L71:
 1024              		.loc 1 227 0 discriminator 4
 1025 008c 254B     		ldr	r3, .L77+12
 1026 008e 1A70     		strb	r2, [r3]
 228:main.c        ****         if (g_stop_now) {
 1027              		.loc 1 228 0 is_stmt 1 discriminator 4
 1028 0090 244B     		ldr	r3, .L77+12
 1029 0092 1B78     		ldrb	r3, [r3]
 1030 0094 DBB2     		uxtb	r3, r3
 1031 0096 002B     		cmp	r3, #0
 1032 0098 0DD0     		beq	.L72
 229:main.c        ****             set_motors_symmetric(0);
 1033              		.loc 1 229 0
 1034 009a 0020     		movs	r0, #0
 1035 009c FFF7FEFF 		bl	set_motors_symmetric
 230:main.c        ****             motor_enable(1u, 1u);
 1036              		.loc 1 230 0
 1037 00a0 0121     		movs	r1, #1
 1038 00a2 0120     		movs	r0, #1
 1039 00a4 FFF7FEFF 		bl	motor_enable
 231:main.c        ****             g_direction = 0u;          
 1040              		.loc 1 231 0
 1041 00a8 1C4B     		ldr	r3, .L77+4
 1042 00aa 0022     		movs	r2, #0
 1043 00ac 1A70     		strb	r2, [r3]
 232:main.c        ****             CyDelay(LOOP_DT_MS);
 1044              		.loc 1 232 0
 1045 00ae 0820     		movs	r0, #8
 1046 00b0 FFF7FEFF 		bl	CyDelay
 233:main.c        ****             continue;
 1047              		.loc 1 233 0
 1048 00b4 2EE0     		b	.L73
 1049              	.L72:
 234:main.c        **** }
 235:main.c        ****         /* A) Read sensors, possibly request a turn on S1/S2 */
 236:main.c        ****         light_sensors_update_and_maybe_request_turn();
 1050              		.loc 1 236 0
 1051 00b6 FFF7FEFF 		bl	light_sensors_update_and_maybe_request_turn
 237:main.c        **** 
 238:main.c        ****         /* B) If a turn was requested, perform it (blocking) and reset to 0 */
 239:main.c        ****         if (g_direction == 1u || g_direction == 2u){
 1052              		.loc 1 239 0
 1053 00ba 184B     		ldr	r3, .L77+4
 1054 00bc 1B78     		ldrb	r3, [r3]
 1055 00be DBB2     		uxtb	r3, r3
 1056 00c0 012B     		cmp	r3, #1
 1057 00c2 04D0     		beq	.L74
 1058              		.loc 1 239 0 is_stmt 0 discriminator 1
 1059 00c4 154B     		ldr	r3, .L77+4
 1060 00c6 1B78     		ldrb	r3, [r3]
 1061 00c8 DBB2     		uxtb	r3, r3
ARM GAS  C:\Users\ylee818\AppData\Local\Temp\ccpZH8oM.s 			page 24


 1062 00ca 022B     		cmp	r3, #2
 1063 00cc 06D1     		bne	.L75
 1064              	.L74:
 240:main.c        ****             Directions_Handle(&g_direction);   // pivot, then set back to 0
 1065              		.loc 1 240 0 is_stmt 1
 1066 00ce 1348     		ldr	r0, .L77+4
 1067 00d0 FFF7FEFF 		bl	Directions_Handle
 241:main.c        ****             CyDelay(LOOP_DT_MS);               // skip this straight tick
 1068              		.loc 1 241 0
 1069 00d4 0820     		movs	r0, #8
 1070 00d6 FFF7FEFF 		bl	CyDelay
 242:main.c        ****             continue;
 1071              		.loc 1 242 0
 1072 00da 1BE0     		b	.L73
 1073              	.L75:
 243:main.c        ****         }
 244:main.c        **** 
 245:main.c        ****         /* C) Straight run:
 246:main.c        ****          *    - stop if distance >= TARGET_DIST_MM
 247:main.c        ****          *    - else apply small steering (틱틱) around center duty
 248:main.c        ****          */
 249:main.c        ****         if (g_dist_mm >= TARGET_DIST_MM){
 1074              		.loc 1 249 0
 1075 00dc 104B     		ldr	r3, .L77+8
 1076 00de 1B68     		ldr	r3, [r3]
 1077 00e0 40F24B42 		movw	r2, #1099
 1078 00e4 9342     		cmp	r3, r2
 1079 00e6 0ADD     		ble	.L76
 250:main.c        ****             set_motors_symmetric(0);
 1080              		.loc 1 250 0
 1081 00e8 0020     		movs	r0, #0
 1082 00ea FFF7FEFF 		bl	set_motors_symmetric
 251:main.c        ****             motor_enable(1u, 1u);
 1083              		.loc 1 251 0
 1084 00ee 0121     		movs	r1, #1
 1085 00f0 0120     		movs	r0, #1
 1086 00f2 FFF7FEFF 		bl	motor_enable
 252:main.c        ****             CyDelay(LOOP_DT_MS);
 1087              		.loc 1 252 0
 1088 00f6 0820     		movs	r0, #8
 1089 00f8 FFF7FEFF 		bl	CyDelay
 253:main.c        ****             continue;
 1090              		.loc 1 253 0
 1091 00fc 0AE0     		b	.L73
 1092              	.L76:
 254:main.c        ****         }
 255:main.c        **** 
 256:main.c        ****         int steer = steer_bias_provider(center_duty_est);
 1093              		.loc 1 256 0
 1094 00fe 7868     		ldr	r0, [r7, #4]
 1095 0100 FFF7FEFF 		bl	steer_bias_provider
 1096 0104 3860     		str	r0, [r7]
 257:main.c        ****         set_motors_with_trim_and_steer(center_duty_est, steer);
 1097              		.loc 1 257 0
 1098 0106 3968     		ldr	r1, [r7]
 1099 0108 7868     		ldr	r0, [r7, #4]
 1100 010a FFF7FEFF 		bl	set_motors_with_trim_and_steer
ARM GAS  C:\Users\ylee818\AppData\Local\Temp\ccpZH8oM.s 			page 25


 258:main.c        **** 
 259:main.c        ****         /* D) Optional pacing */
 260:main.c        ****         CyDelay(LOOP_DT_MS);
 1101              		.loc 1 260 0
 1102 010e 0820     		movs	r0, #8
 1103 0110 FFF7FEFF 		bl	CyDelay
 1104              	.L73:
 1105              	.LBE2:
 261:main.c        ****     }
 1106              		.loc 1 261 0
 1107 0114 B1E7     		b	.L69
 1108              	.L78:
 1109 0116 00BF     		.align	2
 1110              	.L77:
 1111 0118 00000000 		.word	isr_qd_Handler
 1112 011c 06000000 		.word	g_direction
 1113 0120 08000000 		.word	g_dist_mm
 1114 0124 07000000 		.word	g_stop_now
 1115              		.cfi_endproc
 1116              	.LFE68:
 1117              		.size	main, .-main
 1118              		.bss
 1119              	s1.8250:
 1120 000c 00       		.space	1
 1121              	s2.8251:
 1122 000d 00       		.space	1
 1123              	clear_cnt.8260:
 1124 000e 00       		.space	1
 1125              	armed.8259:
 1126 000f 00       		.space	1
 1127              	debL.8256:
 1128 0010 00       		.space	1
 1129              	debR.8257:
 1130 0011 00       		.space	1
 1131              	latched_any.8258:
 1132 0012 00       		.space	1
 1133              		.text
 1134              	.Letext0:
 1135              		.file 2 "c:\\program files (x86)\\cypress\\psoc creator\\4.2\\psoc creator\\import\\gnu\\arm\\5.4.
 1136              		.file 3 "c:\\program files (x86)\\cypress\\psoc creator\\4.2\\psoc creator\\import\\gnu\\arm\\5.4.
 1137              		.file 4 "Generated_Source\\PSoC5/core_cm3.h"